target datalayout = "e-m:e-p270:32:32-p271:32:32-p272:64:64-i64:64-i128:128-f80:128-n8:16:32:64-S128"
target triple = "x86_64-pc-linux-gnu"

%struct.prov_gcm_ctx_st = type { i32, i64, i64, i64, i64, i64, i64, i64, i64, i64, i32, i8, [128 x i8], [16 x i8], ptr, ptr, %struct.gcm128_context, ptr }
%struct.gcm128_context = type { %union.anon, %union.anon, %union.anon, %union.anon, %union.anon, %union.anon, [16 x %struct.u128], %struct.gcm_funcs_st, i32, i32, ptr, ptr, [48 x i8] }
%union.anon = type { [2 x i64] }
%struct.u128 = type { i64, i64 }
%struct.gcm_funcs_st = type { ptr, ptr, ptr }

; Function Attrs: nounwind uwtable
define internal i32 @generic_aes_gcm_cipher_update(ptr noundef %0, ptr noundef %1, i64 noundef %2, ptr noundef %3) #0 {
  %5 = alloca i32, align 4
  %6 = alloca ptr, align 8
  %7 = alloca ptr, align 8
  %8 = alloca i64, align 8
  %9 = alloca ptr, align 8
  %10 = alloca i64, align 8
  %11 = alloca i64, align 8
  %12 = alloca i32, align 4
  %13 = alloca i64, align 8
  %14 = alloca i64, align 8
  store ptr %0, ptr %6, align 8, !tbaa !9
  store ptr %1, ptr %7, align 8, !tbaa !12
  store i64 %2, ptr %8, align 8, !tbaa !3
  store ptr %3, ptr %9, align 8, !tbaa !12
  %15 = load ptr, ptr %6, align 8, !tbaa !9
  %16 = getelementptr inbounds nuw %struct.prov_gcm_ctx_st, ptr %15, i32 0, i32 11
  %17 = load i8, ptr %16, align 4
  %18 = and i8 %17, 1
  %19 = zext i8 %18 to i32
  %20 = icmp ne i32 %19, 0
  br i1 %20, label %21, label %126

21:                                               ; preds = %4
  %22 = load ptr, ptr %6, align 8, !tbaa !9
  %23 = getelementptr inbounds nuw %struct.prov_gcm_ctx_st, ptr %22, i32 0, i32 17
  %24 = load ptr, ptr %23, align 8, !tbaa !37
  %25 = icmp ne ptr %24, null
  br i1 %25, label %26, label %115

26:                                               ; preds = %21
  call void @llvm.lifetime.start.p0(i64 8, ptr %10) #5
  store i64 0, ptr %10, align 8, !tbaa !3
  %27 = load i64, ptr %8, align 8, !tbaa !3
  %28 = icmp uge i64 %27, 32
  br i1 %28, label %29, label %93

29:                                               ; preds = %26
  %30 = load ptr, ptr %6, align 8, !tbaa !9
  %31 = getelementptr inbounds nuw %struct.prov_gcm_ctx_st, ptr %30, i32 0, i32 17
  %32 = load ptr, ptr %31, align 8, !tbaa !37
  %33 = icmp eq ptr %32, @aesni_ctr32_encrypt_blocks
  br i1 %33, label %34, label %93

34:                                               ; preds = %29
  %35 = load ptr, ptr %6, align 8, !tbaa !9
  %36 = getelementptr inbounds nuw %struct.prov_gcm_ctx_st, ptr %35, i32 0, i32 16
  %37 = getelementptr inbounds nuw %struct.gcm128_context, ptr %36, i32 0, i32 7
  %38 = getelementptr inbounds nuw %struct.gcm_funcs_st, ptr %37, i32 0, i32 1
  %39 = load ptr, ptr %38, align 8, !tbaa !38
  %40 = icmp eq ptr %39, @gcm_ghash_avx
  br i1 %40, label %41, label %93

41:                                               ; preds = %34
  call void @llvm.lifetime.start.p0(i64 8, ptr %11) #5
  %42 = load ptr, ptr %6, align 8, !tbaa !9
  %43 = getelementptr inbounds nuw %struct.prov_gcm_ctx_st, ptr %42, i32 0, i32 16
  %44 = getelementptr inbounds nuw %struct.gcm128_context, ptr %43, i32 0, i32 8
  %45 = load i32, ptr %44, align 8, !tbaa !39
  %46 = sub i32 16, %45
  %47 = urem i32 %46, 16
  %48 = zext i32 %47 to i64
  store i64 %48, ptr %11, align 8, !tbaa !3
  %49 = load ptr, ptr %6, align 8, !tbaa !9
  %50 = getelementptr inbounds nuw %struct.prov_gcm_ctx_st, ptr %49, i32 0, i32 16
  %51 = load ptr, ptr %7, align 8, !tbaa !12
  %52 = load ptr, ptr %9, align 8, !tbaa !12
  %53 = load i64, ptr %11, align 8, !tbaa !3
  %54 = call i32 @CRYPTO_gcm128_encrypt(ptr noundef %50, ptr noundef %51, ptr noundef %52, i64 noundef %53)
  %55 = icmp ne i32 %54, 0
  br i1 %55, label %56, label %57

56:                                               ; preds = %41
  store i32 0, ptr %5, align 4
  store i32 1, ptr %12, align 4
  br label %90

57:                                               ; preds = %41
  %58 = load ptr, ptr %7, align 8, !tbaa !12
  %59 = load i64, ptr %11, align 8, !tbaa !3
  %60 = getelementptr inbounds nuw i8, ptr %58, i64 %59
  %61 = load ptr, ptr %9, align 8, !tbaa !12
  %62 = load i64, ptr %11, align 8, !tbaa !3
  %63 = getelementptr inbounds nuw i8, ptr %61, i64 %62
  %64 = load i64, ptr %8, align 8, !tbaa !3
  %65 = load i64, ptr %11, align 8, !tbaa !3
  %66 = sub i64 %64, %65
  %67 = load ptr, ptr %6, align 8, !tbaa !9
  %68 = getelementptr inbounds nuw %struct.prov_gcm_ctx_st, ptr %67, i32 0, i32 16
  %69 = getelementptr inbounds nuw %struct.gcm128_context, ptr %68, i32 0, i32 11
  %70 = load ptr, ptr %69, align 8, !tbaa !40
  %71 = load ptr, ptr %6, align 8, !tbaa !9
  %72 = getelementptr inbounds nuw %struct.prov_gcm_ctx_st, ptr %71, i32 0, i32 16
  %73 = getelementptr inbounds nuw %struct.gcm128_context, ptr %72, i32 0, i32 0
  %74 = getelementptr inbounds [16 x i8], ptr %73, i64 0, i64 0
  %75 = load ptr, ptr %6, align 8, !tbaa !9
  %76 = getelementptr inbounds nuw %struct.prov_gcm_ctx_st, ptr %75, i32 0, i32 16
  %77 = getelementptr inbounds nuw %struct.gcm128_context, ptr %76, i32 0, i32 4
  %78 = getelementptr inbounds [2 x i64], ptr %77, i64 0, i64 0
  %79 = call i64 @aesni_gcm_encrypt(ptr noundef %60, ptr noundef %63, i64 noundef %66, ptr noundef %70, ptr noundef %74, ptr noundef %78)
  store i64 %79, ptr %10, align 8, !tbaa !3
  %80 = load i64, ptr %10, align 8, !tbaa !3
  %81 = load ptr, ptr %6, align 8, !tbaa !9
  %82 = getelementptr inbounds nuw %struct.prov_gcm_ctx_st, ptr %81, i32 0, i32 16
  %83 = getelementptr inbounds nuw %struct.gcm128_context, ptr %82, i32 0, i32 3
  %84 = getelementptr inbounds [2 x i64], ptr %83, i64 0, i64 1
  %85 = load i64, ptr %84, align 8, !tbaa !23
  %86 = add i64 %85, %80
  store i64 %86, ptr %84, align 8, !tbaa !23
  %87 = load i64, ptr %11, align 8, !tbaa !3
  %88 = load i64, ptr %10, align 8, !tbaa !3
  %89 = add i64 %88, %87
  store i64 %89, ptr %10, align 8, !tbaa !3
  store i32 0, ptr %12, align 4
  br label %90

90:                                               ; preds = %57, %56
  call void @llvm.lifetime.end.p0(i64 8, ptr %11) #5
  %91 = load i32, ptr %12, align 4
  switch i32 %91, label %112 [
    i32 0, label %92
  ]

92:                                               ; preds = %90
  br label %93

93:                                               ; preds = %92, %34, %29, %26
  %94 = load ptr, ptr %6, align 8, !tbaa !9
  %95 = getelementptr inbounds nuw %struct.prov_gcm_ctx_st, ptr %94, i32 0, i32 16
  %96 = load ptr, ptr %7, align 8, !tbaa !12
  %97 = load i64, ptr %10, align 8, !tbaa !3
  %98 = getelementptr inbounds nuw i8, ptr %96, i64 %97
  %99 = load ptr, ptr %9, align 8, !tbaa !12
  %100 = load i64, ptr %10, align 8, !tbaa !3
  %101 = getelementptr inbounds nuw i8, ptr %99, i64 %100
  %102 = load i64, ptr %8, align 8, !tbaa !3
  %103 = load i64, ptr %10, align 8, !tbaa !3
  %104 = sub i64 %102, %103
  %105 = load ptr, ptr %6, align 8, !tbaa !9
  %106 = getelementptr inbounds nuw %struct.prov_gcm_ctx_st, ptr %105, i32 0, i32 17
  %107 = load ptr, ptr %106, align 8, !tbaa !37
  %108 = call i32 @CRYPTO_gcm128_encrypt_ctr32(ptr noundef %95, ptr noundef %98, ptr noundef %101, i64 noundef %104, ptr noundef %107)
  %109 = icmp ne i32 %108, 0
  br i1 %109, label %110, label %111

110:                                              ; preds = %93
  store i32 0, ptr %5, align 4
  store i32 1, ptr %12, align 4
  br label %112

111:                                              ; preds = %93
  store i32 0, ptr %12, align 4
  br label %112

112:                                              ; preds = %111, %110, %90
  call void @llvm.lifetime.end.p0(i64 8, ptr %10) #5
  %113 = load i32, ptr %12, align 4
  switch i32 %113, label %234 [
    i32 0, label %114
    i32 1, label %232
  ]

114:                                              ; preds = %112
  br label %125

115:                                              ; preds = %21
  %116 = load ptr, ptr %6, align 8, !tbaa !9
  %117 = getelementptr inbounds nuw %struct.prov_gcm_ctx_st, ptr %116, i32 0, i32 16
  %118 = load ptr, ptr %7, align 8, !tbaa !12
  %119 = load ptr, ptr %9, align 8, !tbaa !12
  %120 = load i64, ptr %8, align 8, !tbaa !3
  %121 = call i32 @CRYPTO_gcm128_encrypt(ptr noundef %117, ptr noundef %118, ptr noundef %119, i64 noundef %120)
  %122 = icmp ne i32 %121, 0
  br i1 %122, label %123, label %124

123:                                              ; preds = %115
  store i32 0, ptr %5, align 4
  br label %232

124:                                              ; preds = %115
  br label %125

125:                                              ; preds = %124, %114
  br label %231

126:                                              ; preds = %4
  %127 = load ptr, ptr %6, align 8, !tbaa !9
  %128 = getelementptr inbounds nuw %struct.prov_gcm_ctx_st, ptr %127, i32 0, i32 17
  %129 = load ptr, ptr %128, align 8, !tbaa !37
  %130 = icmp ne ptr %129, null
  br i1 %130, label %131, label %220

131:                                              ; preds = %126
  call void @llvm.lifetime.start.p0(i64 8, ptr %13) #5
  store i64 0, ptr %13, align 8, !tbaa !3
  %132 = load i64, ptr %8, align 8, !tbaa !3
  %133 = icmp uge i64 %132, 16
  br i1 %133, label %134, label %198

134:                                              ; preds = %131
  %135 = load ptr, ptr %6, align 8, !tbaa !9
  %136 = getelementptr inbounds nuw %struct.prov_gcm_ctx_st, ptr %135, i32 0, i32 17
  %137 = load ptr, ptr %136, align 8, !tbaa !37
  %138 = icmp eq ptr %137, @aesni_ctr32_encrypt_blocks
  br i1 %138, label %139, label %198

139:                                              ; preds = %134
  %140 = load ptr, ptr %6, align 8, !tbaa !9
  %141 = getelementptr inbounds nuw %struct.prov_gcm_ctx_st, ptr %140, i32 0, i32 16
  %142 = getelementptr inbounds nuw %struct.gcm128_context, ptr %141, i32 0, i32 7
  %143 = getelementptr inbounds nuw %struct.gcm_funcs_st, ptr %142, i32 0, i32 1
  %144 = load ptr, ptr %143, align 8, !tbaa !38
  %145 = icmp eq ptr %144, @gcm_ghash_avx
  br i1 %145, label %146, label %198

146:                                              ; preds = %139
  call void @llvm.lifetime.start.p0(i64 8, ptr %14) #5
  %147 = load ptr, ptr %6, align 8, !tbaa !9
  %148 = getelementptr inbounds nuw %struct.prov_gcm_ctx_st, ptr %147, i32 0, i32 16
  %149 = getelementptr inbounds nuw %struct.gcm128_context, ptr %148, i32 0, i32 8
  %150 = load i32, ptr %149, align 8, !tbaa !39
  %151 = sub i32 16, %150
  %152 = urem i32 %151, 16
  %153 = zext i32 %152 to i64
  store i64 %153, ptr %14, align 8, !tbaa !3
  %154 = load ptr, ptr %6, align 8, !tbaa !9
  %155 = getelementptr inbounds nuw %struct.prov_gcm_ctx_st, ptr %154, i32 0, i32 16
  %156 = load ptr, ptr %7, align 8, !tbaa !12
  %157 = load ptr, ptr %9, align 8, !tbaa !12
  %158 = load i64, ptr %14, align 8, !tbaa !3
  %159 = call i32 @CRYPTO_gcm128_decrypt(ptr noundef %155, ptr noundef %156, ptr noundef %157, i64 noundef %158)
  %160 = icmp ne i32 %159, 0
  br i1 %160, label %161, label %162

161:                                              ; preds = %146
  store i32 0, ptr %5, align 4
  store i32 1, ptr %12, align 4
  br label %195

162:                                              ; preds = %146
  %163 = load ptr, ptr %7, align 8, !tbaa !12
  %164 = load i64, ptr %14, align 8, !tbaa !3
  %165 = getelementptr inbounds nuw i8, ptr %163, i64 %164
  %166 = load ptr, ptr %9, align 8, !tbaa !12
  %167 = load i64, ptr %14, align 8, !tbaa !3
  %168 = getelementptr inbounds nuw i8, ptr %166, i64 %167
  %169 = load i64, ptr %8, align 8, !tbaa !3
  %170 = load i64, ptr %14, align 8, !tbaa !3
  %171 = sub i64 %169, %170
  %172 = load ptr, ptr %6, align 8, !tbaa !9
  %173 = getelementptr inbounds nuw %struct.prov_gcm_ctx_st, ptr %172, i32 0, i32 16
  %174 = getelementptr inbounds nuw %struct.gcm128_context, ptr %173, i32 0, i32 11
  %175 = load ptr, ptr %174, align 8, !tbaa !40
  %176 = load ptr, ptr %6, align 8, !tbaa !9
  %177 = getelementptr inbounds nuw %struct.prov_gcm_ctx_st, ptr %176, i32 0, i32 16
  %178 = getelementptr inbounds nuw %struct.gcm128_context, ptr %177, i32 0, i32 0
  %179 = getelementptr inbounds [16 x i8], ptr %178, i64 0, i64 0
  %180 = load ptr, ptr %6, align 8, !tbaa !9
  %181 = getelementptr inbounds nuw %struct.prov_gcm_ctx_st, ptr %180, i32 0, i32 16
  %182 = getelementptr inbounds nuw %struct.gcm128_context, ptr %181, i32 0, i32 4
  %183 = getelementptr inbounds [2 x i64], ptr %182, i64 0, i64 0
  %184 = call i64 @aesni_gcm_decrypt(ptr noundef %165, ptr noundef %168, i64 noundef %171, ptr noundef %175, ptr noundef %179, ptr noundef %183)
  store i64 %184, ptr %13, align 8, !tbaa !3
  %185 = load i64, ptr %13, align 8, !tbaa !3
  %186 = load ptr, ptr %6, align 8, !tbaa !9
  %187 = getelementptr inbounds nuw %struct.prov_gcm_ctx_st, ptr %186, i32 0, i32 16
  %188 = getelementptr inbounds nuw %struct.gcm128_context, ptr %187, i32 0, i32 3
  %189 = getelementptr inbounds [2 x i64], ptr %188, i64 0, i64 1
  %190 = load i64, ptr %189, align 8, !tbaa !23
  %191 = add i64 %190, %185
  store i64 %191, ptr %189, align 8, !tbaa !23
  %192 = load i64, ptr %14, align 8, !tbaa !3
  %193 = load i64, ptr %13, align 8, !tbaa !3
  %194 = add i64 %193, %192
  store i64 %194, ptr %13, align 8, !tbaa !3
  store i32 0, ptr %12, align 4
  br label %195

195:                                              ; preds = %162, %161
  call void @llvm.lifetime.end.p0(i64 8, ptr %14) #5
  %196 = load i32, ptr %12, align 4
  switch i32 %196, label %217 [
    i32 0, label %197
  ]

197:                                              ; preds = %195
  br label %198

198:                                              ; preds = %197, %139, %134, %131
  %199 = load ptr, ptr %6, align 8, !tbaa !9
  %200 = getelementptr inbounds nuw %struct.prov_gcm_ctx_st, ptr %199, i32 0, i32 16
  %201 = load ptr, ptr %7, align 8, !tbaa !12
  %202 = load i64, ptr %13, align 8, !tbaa !3
  %203 = getelementptr inbounds nuw i8, ptr %201, i64 %202
  %204 = load ptr, ptr %9, align 8, !tbaa !12
  %205 = load i64, ptr %13, align 8, !tbaa !3
  %206 = getelementptr inbounds nuw i8, ptr %204, i64 %205
  %207 = load i64, ptr %8, align 8, !tbaa !3
  %208 = load i64, ptr %13, align 8, !tbaa !3
  %209 = sub i64 %207, %208
  %210 = load ptr, ptr %6, align 8, !tbaa !9
  %211 = getelementptr inbounds nuw %struct.prov_gcm_ctx_st, ptr %210, i32 0, i32 17
  %212 = load ptr, ptr %211, align 8, !tbaa !37
  %213 = call i32 @CRYPTO_gcm128_decrypt_ctr32(ptr noundef %200, ptr noundef %203, ptr noundef %206, i64 noundef %209, ptr noundef %212)
  %214 = icmp ne i32 %213, 0
  br i1 %214, label %215, label %216

215:                                              ; preds = %198
  store i32 0, ptr %5, align 4
  store i32 1, ptr %12, align 4
  br label %217

216:                                              ; preds = %198
  store i32 0, ptr %12, align 4
  br label %217

217:                                              ; preds = %216, %215, %195
  call void @llvm.lifetime.end.p0(i64 8, ptr %13) #5
  %218 = load i32, ptr %12, align 4
  switch i32 %218, label %234 [
    i32 0, label %219
    i32 1, label %232
  ]

219:                                              ; preds = %217
  br label %230

220:                                              ; preds = %126
  %221 = load ptr, ptr %6, align 8, !tbaa !9
  %222 = getelementptr inbounds nuw %struct.prov_gcm_ctx_st, ptr %221, i32 0, i32 16
  %223 = load ptr, ptr %7, align 8, !tbaa !12
  %224 = load ptr, ptr %9, align 8, !tbaa !12
  %225 = load i64, ptr %8, align 8, !tbaa !3
  %226 = call i32 @CRYPTO_gcm128_decrypt(ptr noundef %222, ptr noundef %223, ptr noundef %224, i64 noundef %225)
  %227 = icmp ne i32 %226, 0
  br i1 %227, label %228, label %229

228:                                              ; preds = %220
  store i32 0, ptr %5, align 4
  br label %232

229:                                              ; preds = %220
  br label %230

230:                                              ; preds = %229, %219
  br label %231

231:                                              ; preds = %230, %125
  store i32 1, ptr %5, align 4
  br label %232

232:                                              ; preds = %231, %228, %217, %123, %112
  %233 = load i32, ptr %5, align 4
  ret i32 %233

234:                                              ; preds = %217, %112
  unreachable
}