; Function Attrs: nounwind uwtable
define internal range(i32 0, 2) i32 @generic_aes_gcm_cipher_update(ptr noundef %0, ptr noundef %1, i64 noundef %2, ptr noundef %3) #0 {
  %5 = getelementptr inbounds nuw i8, ptr %0, i64 84
  %6 = load i8, ptr %5, align 4
  %7 = and i8 %6, 1
  %.not = icmp eq i8 %7, 0
  %8 = getelementptr inbounds nuw i8, ptr %0, i64 696
  %9 = load ptr, ptr %8, align 8, !tbaa !22
  %.not84 = icmp eq ptr %9, null
  br i1 %.not, label %47, label %10

10:                                               ; preds = %4
  br i1 %.not84, label %44, label %11

11:                                               ; preds = %10
  %12 = icmp ugt i64 %2, 31
  %13 = icmp eq ptr %9, @aesni_ctr32_encrypt_blocks
  %or.cond = and i1 %12, %13
  br i1 %or.cond, label %14, label %37

14:                                               ; preds = %11
  %15 = getelementptr inbounds nuw i8, ptr %0, i64 248
  %16 = getelementptr inbounds nuw i8, ptr %0, i64 608
  %17 = load ptr, ptr %16, align 8, !tbaa !23
  %18 = icmp eq ptr %17, @gcm_ghash_avx
  br i1 %18, label %19, label %37

19:                                               ; preds = %14
  %20 = getelementptr inbounds nuw i8, ptr %0, i64 624
  %21 = load i32, ptr %20, align 8, !tbaa !24
  %22 = sub i32 0, %21
  %23 = and i32 %22, 15
  %24 = zext nneg i32 %23 to i64
  %25 = tail call i32 @CRYPTO_gcm128_encrypt(ptr noundef nonnull %15, ptr noundef %1, ptr noundef %3, i64 noundef %24) #4
  %.not90 = icmp eq i32 %25, 0
  br i1 %.not90, label %.thread, label %.thread97

.thread:                                          ; preds = %19
  %26 = getelementptr inbounds nuw i8, ptr %1, i64 %24
  %27 = getelementptr inbounds nuw i8, ptr %3, i64 %24
  %28 = sub nuw i64 %2, %24
  %29 = getelementptr inbounds nuw i8, ptr %0, i64 640
  %30 = load ptr, ptr %29, align 8, !tbaa !25
  %31 = getelementptr inbounds nuw i8, ptr %0, i64 312
  %32 = tail call i64 @aesni_gcm_encrypt(ptr noundef %26, ptr noundef %27, i64 noundef %28, ptr noundef %30, ptr noundef nonnull %15, ptr noundef nonnull %31) #4
  %33 = getelementptr inbounds nuw i8, ptr %0, i64 304
  %34 = load i64, ptr %33, align 8, !tbaa !13
  %35 = add i64 %34, %32
  store i64 %35, ptr %33, align 8, !tbaa !13
  %36 = add i64 %32, %24
  %.pre = load ptr, ptr %8, align 8, !tbaa !22
  br label %37

37:                                               ; preds = %.thread, %14, %11
  %38 = phi ptr [ @aesni_ctr32_encrypt_blocks, %14 ], [ %9, %11 ], [ %.pre, %.thread ]
  %.080 = phi i64 [ 0, %14 ], [ 0, %11 ], [ %36, %.thread ]
  %39 = getelementptr inbounds nuw i8, ptr %0, i64 248
  %40 = getelementptr inbounds nuw i8, ptr %1, i64 %.080
  %41 = getelementptr inbounds nuw i8, ptr %3, i64 %.080
  %42 = sub i64 %2, %.080
  %43 = tail call i32 @CRYPTO_gcm128_encrypt_ctr32(ptr noundef nonnull %39, ptr noundef %40, ptr noundef %41, i64 noundef %42, ptr noundef %38) #4
  %.not91 = icmp eq i32 %43, 0
  br i1 %.not91, label %84, label %.thread97

44:                                               ; preds = %10
  %45 = getelementptr inbounds nuw i8, ptr %0, i64 248
  %46 = tail call i32 @CRYPTO_gcm128_encrypt(ptr noundef nonnull %45, ptr noundef %1, ptr noundef %3, i64 noundef %2) #4
  %.not89 = icmp eq i32 %46, 0
  br i1 %.not89, label %84, label %.thread97

47:                                               ; preds = %4
  br i1 %.not84, label %81, label %48

48:                                               ; preds = %47
  %49 = icmp ugt i64 %2, 15
  %50 = icmp eq ptr %9, @aesni_ctr32_encrypt_blocks
  %or.cond92 = and i1 %49, %50
  br i1 %or.cond92, label %51, label %74

51:                                               ; preds = %48
  %52 = getelementptr inbounds nuw i8, ptr %0, i64 248
  %53 = getelementptr inbounds nuw i8, ptr %0, i64 608
  %54 = load ptr, ptr %53, align 8, !tbaa !23
  %55 = icmp eq ptr %54, @gcm_ghash_avx
  br i1 %55, label %56, label %74

56:                                               ; preds = %51
  %57 = getelementptr inbounds nuw i8, ptr %0, i64 624
  %58 = load i32, ptr %57, align 8, !tbaa !24
  %59 = sub i32 0, %58
  %60 = and i32 %59, 15
  %61 = zext nneg i32 %60 to i64
  %62 = tail call i32 @CRYPTO_gcm128_decrypt(ptr noundef nonnull %52, ptr noundef %1, ptr noundef %3, i64 noundef %61) #4
  %.not86 = icmp eq i32 %62, 0
  br i1 %.not86, label %.thread100, label %.thread97

.thread100:                                       ; preds = %56
  %63 = getelementptr inbounds nuw i8, ptr %1, i64 %61
  %64 = getelementptr inbounds nuw i8, ptr %3, i64 %61
  %65 = sub nuw i64 %2, %61
  %66 = getelementptr inbounds nuw i8, ptr %0, i64 640
  %67 = load ptr, ptr %66, align 8, !tbaa !25
  %68 = getelementptr inbounds nuw i8, ptr %0, i64 312
  %69 = tail call i64 @aesni_gcm_decrypt(ptr noundef %63, ptr noundef %64, i64 noundef %65, ptr noundef %67, ptr noundef nonnull %52, ptr noundef nonnull %68) #4
  %70 = getelementptr inbounds nuw i8, ptr %0, i64 304
  %71 = load i64, ptr %70, align 8, !tbaa !13
  %72 = add i64 %71, %69
  store i64 %72, ptr %70, align 8, !tbaa !13
  %73 = add i64 %69, %61
  %.pre107 = load ptr, ptr %8, align 8, !tbaa !22
  br label %74

74:                                               ; preds = %.thread100, %51, %48
  %75 = phi ptr [ @aesni_ctr32_encrypt_blocks, %51 ], [ %9, %48 ], [ %.pre107, %.thread100 ]
  %.074 = phi i64 [ 0, %51 ], [ 0, %48 ], [ %73, %.thread100 ]
  %76 = getelementptr inbounds nuw i8, ptr %0, i64 248
  %77 = getelementptr inbounds nuw i8, ptr %1, i64 %.074
  %78 = getelementptr inbounds nuw i8, ptr %3, i64 %.074
  %79 = sub i64 %2, %.074
  %80 = tail call i32 @CRYPTO_gcm128_decrypt_ctr32(ptr noundef nonnull %76, ptr noundef %77, ptr noundef %78, i64 noundef %79, ptr noundef %75) #4
  %.not87 = icmp eq i32 %80, 0
  br i1 %.not87, label %84, label %.thread97

81:                                               ; preds = %47
  %82 = getelementptr inbounds nuw i8, ptr %0, i64 248
  %83 = tail call i32 @CRYPTO_gcm128_decrypt(ptr noundef nonnull %82, ptr noundef %1, ptr noundef %3, i64 noundef %2) #4
  %.not85 = icmp eq i32 %83, 0
  br i1 %.not85, label %84, label %.thread97

84:                                               ; preds = %74, %37, %81, %44
  br label %.thread97

.thread97:                                        ; preds = %56, %74, %19, %37, %81, %44, %84
  %.3 = phi i32 [ 1, %84 ], [ 0, %44 ], [ 0, %81 ], [ 0, %37 ], [ 0, %19 ], [ 0, %74 ], [ 0, %56 ]
  ret i32 %.3
}